(dp0
Vfinance/accounting
p1
(lp2
Vfinancial_math(small_cluster)
p3
aVmath/stat
p4
asVnutrition/health
p5
(lp6
Vfitness/weight_loss
p7
aVliberal_art
p8
aVrandom2
p9
aVsocial_science
p10
aVstress_relieve
p11
asVspeaking/sound(small_cluster)
p12
(lp13
g7
aVmusic
p14
aVrandom3
p15
asg7
(lp16
g5
aVrandom1
p17
ag12
ag11
asVe-commerce/small_business
p18
(lp19
g9
asVmobile_app_dev
p20
(lp21
Vjavascript(minor_topic)
p22
aVprogramming
p23
aVweb_development
p24
asg22
(lp25
g20
aVstock_trading
p26
asg26
(lp27
g3
ag22
asg8
(lp28
g5
ag17
ag10
asg11
(lp29
g7
ag5
ag17
ag10
asVlanguages
p30
(lp31
g9
asg14
(lp32
Vscience
p33
ag12
asg10
(lp34
Vcritical_thinking/reasoning
p35
ag3
ag8
ag5
ag33
ag11
asg24
(lp36
Vdatabase
p37
ag20
ag23
asVphotography
p38
(lp39
g9
ag15
asg17
(lp40
g7
ag8
ag11
asg9
(lp41
g18
ag30
ag5
ag38
ag15
asg15
(lp42
g38
ag9
ag12
asg4
(lp43
g1
ag3
asg35
(lp44
g10
asVcourses_taught_in_foreign_language
p45
(lp46
sg37
(lp47
g24
asg33
(lp48
g3
ag14
ag10
asg23
(lp49
g20
ag24
asg3
(lp50
g1
ag4
ag33
ag10
ag26
as.